; Function Attrs: mustprogress nounwind uwtable
define internal void @_ZN12_GLOBAL__N_121CallAndMessageCheckerD2Ev(ptr noundef nonnull align 8 dereferenceable(152) initializes((0, 8)) %0) unnamed_addr #0 align 2 {
  store ptr getelementptr inbounds nuw inrange(-16, 32) (i8, ptr @_ZTVN12_GLOBAL__N_121CallAndMessageCheckerE, i64 16), ptr %0, align 8
  %2 = getelementptr inbounds nuw i8, ptr %0, i64 120
  %3 = load ptr, ptr %2, align 8
  %.not.i = icmp eq ptr %3, null
  br i1 %.not.i, label %_ZNSt10unique_ptrIN5clang4ento7BugTypeESt14default_deleteIS2_EED2Ev.exit, label %_ZNKSt14default_deleteIN5clang4ento7BugTypeEEclEPS2_.exit.i

_ZNKSt14default_deleteIN5clang4ento7BugTypeEEclEPS2_.exit.i: ; preds = %1
  %4 = load ptr, ptr %3, align 8
  %5 = getelementptr inbounds nuw i8, ptr %4, i64 16
  %6 = load ptr, ptr %5, align 8
  tail call void %6(ptr noundef nonnull align 8 dereferenceable(97) %3) #20
  br label %_ZNSt10unique_ptrIN5clang4ento7BugTypeESt14default_deleteIS2_EED2Ev.exit

_ZNSt10unique_ptrIN5clang4ento7BugTypeESt14default_deleteIS2_EED2Ev.exit: ; preds = %1, %_ZNKSt14default_deleteIN5clang4ento7BugTypeEEclEPS2_.exit.i
  store ptr null, ptr %2, align 8
  %7 = getelementptr inbounds nuw i8, ptr %0, i64 112
  %8 = load ptr, ptr %7, align 8
  %.not.i1 = icmp eq ptr %8, null
  br i1 %.not.i1, label %_ZNSt10unique_ptrIN5clang4ento7BugTypeESt14default_deleteIS2_EED2Ev.exit3, label %_ZNKSt14default_deleteIN5clang4ento7BugTypeEEclEPS2_.exit.i2

_ZNKSt14default_deleteIN5clang4ento7BugTypeEEclEPS2_.exit.i2: ; preds = %_ZNSt10unique_ptrIN5clang4ento7BugTypeESt14default_deleteIS2_EED2Ev.exit
  %9 = load ptr, ptr %8, align 8
  %10 = getelementptr inbounds nuw i8, ptr %9, i64 16
  %11 = load ptr, ptr %10, align 8
  tail call void %11(ptr noundef nonnull align 8 dereferenceable(97) %8) #20
  br label %_ZNSt10unique_ptrIN5clang4ento7BugTypeESt14default_deleteIS2_EED2Ev.exit3

_ZNSt10unique_ptrIN5clang4ento7BugTypeESt14default_deleteIS2_EED2Ev.exit3: ; preds = %_ZNSt10unique_ptrIN5clang4ento7BugTypeESt14default_deleteIS2_EED2Ev.exit, %_ZNKSt14default_deleteIN5clang4ento7BugTypeEEclEPS2_.exit.i2
  store ptr null, ptr %7, align 8
  %12 = getelementptr inbounds nuw i8, ptr %0, i64 104
  %13 = load ptr, ptr %12, align 8
  %.not.i4 = icmp eq ptr %13, null
  br i1 %.not.i4, label %_ZNSt10unique_ptrIN5clang4ento7BugTypeESt14default_deleteIS2_EED2Ev.exit6, label %_ZNKSt14default_deleteIN5clang4ento7BugTypeEEclEPS2_.exit.i5

_ZNKSt14default_deleteIN5clang4ento7BugTypeEEclEPS2_.exit.i5: ; preds = %_ZNSt10unique_ptrIN5clang4ento7BugTypeESt14default_deleteIS2_EED2Ev.exit3
  %14 = load ptr, ptr %13, align 8
  %15 = getelementptr inbounds nuw i8, ptr %14, i64 16
  %16 = load ptr, ptr %15, align 8
  tail call void %16(ptr noundef nonnull align 8 dereferenceable(97) %13) #20
  br label %_ZNSt10unique_ptrIN5clang4ento7BugTypeESt14default_deleteIS2_EED2Ev.exit6

_ZNSt10unique_ptrIN5clang4ento7BugTypeESt14default_deleteIS2_EED2Ev.exit6: ; preds = %_ZNSt10unique_ptrIN5clang4ento7BugTypeESt14default_deleteIS2_EED2Ev.exit3, %_ZNKSt14default_deleteIN5clang4ento7BugTypeEEclEPS2_.exit.i5
  store ptr null, ptr %12, align 8
  %17 = getelementptr inbounds nuw i8, ptr %0, i64 96
  %18 = load ptr, ptr %17, align 8
  %.not.i7 = icmp eq ptr %18, null
  br i1 %.not.i7, label %_ZNSt10unique_ptrIN5clang4ento7BugTypeESt14default_deleteIS2_EED2Ev.exit9, label %_ZNKSt14default_deleteIN5clang4ento7BugTypeEEclEPS2_.exit.i8

_ZNKSt14default_deleteIN5clang4ento7BugTypeEEclEPS2_.exit.i8: ; preds = %_ZNSt10unique_ptrIN5clang4ento7BugTypeESt14default_deleteIS2_EED2Ev.exit6
  %19 = load ptr, ptr %18, align 8
  %20 = getelementptr inbounds nuw i8, ptr %19, i64 16
  %21 = load ptr, ptr %20, align 8
  tail call void %21(ptr noundef nonnull align 8 dereferenceable(97) %18) #20
  br label %_ZNSt10unique_ptrIN5clang4ento7BugTypeESt14default_deleteIS2_EED2Ev.exit9

_ZNSt10unique_ptrIN5clang4ento7BugTypeESt14default_deleteIS2_EED2Ev.exit9: ; preds = %_ZNSt10unique_ptrIN5clang4ento7BugTypeESt14default_deleteIS2_EED2Ev.exit6, %_ZNKSt14default_deleteIN5clang4ento7BugTypeEEclEPS2_.exit.i8
  store ptr null, ptr %17, align 8
  %22 = getelementptr inbounds nuw i8, ptr %0, i64 88
  %23 = load ptr, ptr %22, align 8
  %.not.i10 = icmp eq ptr %23, null
  br i1 %.not.i10, label %_ZNSt10unique_ptrIN5clang4ento7BugTypeESt14default_deleteIS2_EED2Ev.exit12, label %_ZNKSt14default_deleteIN5clang4ento7BugTypeEEclEPS2_.exit.i11

_ZNKSt14default_deleteIN5clang4ento7BugTypeEEclEPS2_.exit.i11: ; preds = %_ZNSt10unique_ptrIN5clang4ento7BugTypeESt14default_deleteIS2_EED2Ev.exit9
  %24 = load ptr, ptr %23, align 8
  %25 = getelementptr inbounds nuw i8, ptr %24, i64 16
  %26 = load ptr, ptr %25, align 8
  tail call void %26(ptr noundef nonnull align 8 dereferenceable(97) %23) #20
  br label %_ZNSt10unique_ptrIN5clang4ento7BugTypeESt14default_deleteIS2_EED2Ev.exit12

_ZNSt10unique_ptrIN5clang4ento7BugTypeESt14default_deleteIS2_EED2Ev.exit12: ; preds = %_ZNSt10unique_ptrIN5clang4ento7BugTypeESt14default_deleteIS2_EED2Ev.exit9, %_ZNKSt14default_deleteIN5clang4ento7BugTypeEEclEPS2_.exit.i11
  store ptr null, ptr %22, align 8
  %27 = getelementptr inbounds nuw i8, ptr %0, i64 80
  %28 = load ptr, ptr %27, align 8
  %.not.i13 = icmp eq ptr %28, null
  br i1 %.not.i13, label %_ZNSt10unique_ptrIN5clang4ento7BugTypeESt14default_deleteIS2_EED2Ev.exit15, label %_ZNKSt14default_deleteIN5clang4ento7BugTypeEEclEPS2_.exit.i14

_ZNKSt14default_deleteIN5clang4ento7BugTypeEEclEPS2_.exit.i14: ; preds = %_ZNSt10unique_ptrIN5clang4ento7BugTypeESt14default_deleteIS2_EED2Ev.exit12
  %29 = load ptr, ptr %28, align 8
  %30 = getelementptr inbounds nuw i8, ptr %29, i64 16
  %31 = load ptr, ptr %30, align 8
  tail call void %31(ptr noundef nonnull align 8 dereferenceable(97) %28) #20
  br label %_ZNSt10unique_ptrIN5clang4ento7BugTypeESt14default_deleteIS2_EED2Ev.exit15

_ZNSt10unique_ptrIN5clang4ento7BugTypeESt14default_deleteIS2_EED2Ev.exit15: ; preds = %_ZNSt10unique_ptrIN5clang4ento7BugTypeESt14default_deleteIS2_EED2Ev.exit12, %_ZNKSt14default_deleteIN5clang4ento7BugTypeEEclEPS2_.exit.i14
  store ptr null, ptr %27, align 8
  %32 = getelementptr inbounds nuw i8, ptr %0, i64 72
  %33 = load ptr, ptr %32, align 8
  %.not.i16 = icmp eq ptr %33, null
  br i1 %.not.i16, label %_ZNSt10unique_ptrIN5clang4ento7BugTypeESt14default_deleteIS2_EED2Ev.exit18, label %_ZNKSt14default_deleteIN5clang4ento7BugTypeEEclEPS2_.exit.i17

_ZNKSt14default_deleteIN5clang4ento7BugTypeEEclEPS2_.exit.i17: ; preds = %_ZNSt10unique_ptrIN5clang4ento7BugTypeESt14default_deleteIS2_EED2Ev.exit15
  %34 = load ptr, ptr %33, align 8
  %35 = getelementptr inbounds nuw i8, ptr %34, i64 16
  %36 = load ptr, ptr %35, align 8
  tail call void %36(ptr noundef nonnull align 8 dereferenceable(97) %33) #20
  br label %_ZNSt10unique_ptrIN5clang4ento7BugTypeESt14default_deleteIS2_EED2Ev.exit18

_ZNSt10unique_ptrIN5clang4ento7BugTypeESt14default_deleteIS2_EED2Ev.exit18: ; preds = %_ZNSt10unique_ptrIN5clang4ento7BugTypeESt14default_deleteIS2_EED2Ev.exit15, %_ZNKSt14default_deleteIN5clang4ento7BugTypeEEclEPS2_.exit.i17
  store ptr null, ptr %32, align 8
  %37 = getelementptr inbounds nuw i8, ptr %0, i64 64
  %38 = load ptr, ptr %37, align 8
  %.not.i19 = icmp eq ptr %38, null
  br i1 %.not.i19, label %_ZNSt10unique_ptrIN5clang4ento7BugTypeESt14default_deleteIS2_EED2Ev.exit21, label %_ZNKSt14default_deleteIN5clang4ento7BugTypeEEclEPS2_.exit.i20

_ZNKSt14default_deleteIN5clang4ento7BugTypeEEclEPS2_.exit.i20: ; preds = %_ZNSt10unique_ptrIN5clang4ento7BugTypeESt14default_deleteIS2_EED2Ev.exit18
  %39 = load ptr, ptr %38, align 8
  %40 = getelementptr inbounds nuw i8, ptr %39, i64 16
  %41 = load ptr, ptr %40, align 8
  tail call void %41(ptr noundef nonnull align 8 dereferenceable(97) %38) #20
  br label %_ZNSt10unique_ptrIN5clang4ento7BugTypeESt14default_deleteIS2_EED2Ev.exit21

_ZNSt10unique_ptrIN5clang4ento7BugTypeESt14default_deleteIS2_EED2Ev.exit21: ; preds = %_ZNSt10unique_ptrIN5clang4ento7BugTypeESt14default_deleteIS2_EED2Ev.exit18, %_ZNKSt14default_deleteIN5clang4ento7BugTypeEEclEPS2_.exit.i20
  store ptr null, ptr %37, align 8
  %42 = getelementptr inbounds nuw i8, ptr %0, i64 56
  %43 = load ptr, ptr %42, align 8
  %.not.i22 = icmp eq ptr %43, null
  br i1 %.not.i22, label %_ZNSt10unique_ptrIN5clang4ento7BugTypeESt14default_deleteIS2_EED2Ev.exit24, label %_ZNKSt14default_deleteIN5clang4ento7BugTypeEEclEPS2_.exit.i23

_ZNKSt14default_deleteIN5clang4ento7BugTypeEEclEPS2_.exit.i23: ; preds = %_ZNSt10unique_ptrIN5clang4ento7BugTypeESt14default_deleteIS2_EED2Ev.exit21
  %44 = load ptr, ptr %43, align 8
  %45 = getelementptr inbounds nuw i8, ptr %44, i64 16
  %46 = load ptr, ptr %45, align 8
  tail call void %46(ptr noundef nonnull align 8 dereferenceable(97) %43) #20
  br label %_ZNSt10unique_ptrIN5clang4ento7BugTypeESt14default_deleteIS2_EED2Ev.exit24

_ZNSt10unique_ptrIN5clang4ento7BugTypeESt14default_deleteIS2_EED2Ev.exit24: ; preds = %_ZNSt10unique_ptrIN5clang4ento7BugTypeESt14default_deleteIS2_EED2Ev.exit21, %_ZNKSt14default_deleteIN5clang4ento7BugTypeEEclEPS2_.exit.i23
  store ptr null, ptr %42, align 8
  %47 = getelementptr inbounds nuw i8, ptr %0, i64 48
  %48 = load ptr, ptr %47, align 8
  %.not.i25 = icmp eq ptr %48, null
  br i1 %.not.i25, label %_ZNSt10unique_ptrIN5clang4ento7BugTypeESt14default_deleteIS2_EED2Ev.exit27, label %_ZNKSt14default_deleteIN5clang4ento7BugTypeEEclEPS2_.exit.i26

_ZNKSt14default_deleteIN5clang4ento7BugTypeEEclEPS2_.exit.i26: ; preds = %_ZNSt10unique_ptrIN5clang4ento7BugTypeESt14default_deleteIS2_EED2Ev.exit24
  %49 = load ptr, ptr %48, align 8
  %50 = getelementptr inbounds nuw i8, ptr %49, i64 16
  %51 = load ptr, ptr %50, align 8
  tail call void %51(ptr noundef nonnull align 8 dereferenceable(97) %48) #20
  br label %_ZNSt10unique_ptrIN5clang4ento7BugTypeESt14default_deleteIS2_EED2Ev.exit27

_ZNSt10unique_ptrIN5clang4ento7BugTypeESt14default_deleteIS2_EED2Ev.exit27: ; preds = %_ZNSt10unique_ptrIN5clang4ento7BugTypeESt14default_deleteIS2_EED2Ev.exit24, %_ZNKSt14default_deleteIN5clang4ento7BugTypeEEclEPS2_.exit.i26
  store ptr null, ptr %47, align 8
  %52 = getelementptr inbounds nuw i8, ptr %0, i64 40
  %53 = load ptr, ptr %52, align 8
  %.not.i28 = icmp eq ptr %53, null
  br i1 %.not.i28, label %_ZNSt10unique_ptrIN5clang4ento7BugTypeESt14default_deleteIS2_EED2Ev.exit30, label %_ZNKSt14default_deleteIN5clang4ento7BugTypeEEclEPS2_.exit.i29

_ZNKSt14default_deleteIN5clang4ento7BugTypeEEclEPS2_.exit.i29: ; preds = %_ZNSt10unique_ptrIN5clang4ento7BugTypeESt14default_deleteIS2_EED2Ev.exit27
  %54 = load ptr, ptr %53, align 8
  %55 = getelementptr inbounds nuw i8, ptr %54, i64 16
  %56 = load ptr, ptr %55, align 8
  tail call void %56(ptr noundef nonnull align 8 dereferenceable(97) %53) #20
  br label %_ZNSt10unique_ptrIN5clang4ento7BugTypeESt14default_deleteIS2_EED2Ev.exit30

_ZNSt10unique_ptrIN5clang4ento7BugTypeESt14default_deleteIS2_EED2Ev.exit30: ; preds = %_ZNSt10unique_ptrIN5clang4ento7BugTypeESt14default_deleteIS2_EED2Ev.exit27, %_ZNKSt14default_deleteIN5clang4ento7BugTypeEEclEPS2_.exit.i29
  store ptr null, ptr %52, align 8
  %57 = getelementptr inbounds nuw i8, ptr %0, i64 32
  %58 = load ptr, ptr %57, align 8
  %.not.i31 = icmp eq ptr %58, null
  br i1 %.not.i31, label %_ZNSt10unique_ptrIN5clang4ento7BugTypeESt14default_deleteIS2_EED2Ev.exit33, label %_ZNKSt14default_deleteIN5clang4ento7BugTypeEEclEPS2_.exit.i32

_ZNKSt14default_deleteIN5clang4ento7BugTypeEEclEPS2_.exit.i32: ; preds = %_ZNSt10unique_ptrIN5clang4ento7BugTypeESt14default_deleteIS2_EED2Ev.exit30
  %59 = load ptr, ptr %58, align 8
  %60 = getelementptr inbounds nuw i8, ptr %59, i64 16
  %61 = load ptr, ptr %60, align 8
  tail call void %61(ptr noundef nonnull align 8 dereferenceable(97) %58) #20
  br label %_ZNSt10unique_ptrIN5clang4ento7BugTypeESt14default_deleteIS2_EED2Ev.exit33

_ZNSt10unique_ptrIN5clang4ento7BugTypeESt14default_deleteIS2_EED2Ev.exit33: ; preds = %_ZNSt10unique_ptrIN5clang4ento7BugTypeESt14default_deleteIS2_EED2Ev.exit30, %_ZNKSt14default_deleteIN5clang4ento7BugTypeEEclEPS2_.exit.i32
  store ptr null, ptr %57, align 8
  tail call void @_ZN5clang15ProgramPointTagD2Ev(ptr noundef nonnull align 8 dereferenceable(32) %0) #20
  ret void
}